target datalayout = "e-m:e-p270:32:32-p271:32:32-p272:64:64-i64:64-i128:128-f80:128-n8:16:32:64-S128"
target triple = "x86_64-pc-linux-gnu"

%class.ModelHelperTreeItem = type { ptr, ptr, %class.QList }
%class.QList = type { %struct.QArrayDataPointer.0 }
%struct.QArrayDataPointer.0 = type { ptr, ptr, i64 }
%class.DissectorTablesModel = type { %class.QAbstractItemModel, ptr }
%class.QAbstractItemModel = type { %class.QObject }
%class.QObject = type { ptr, %class.QScopedPointer }
%class.QScopedPointer = type { ptr }
%class.QModelIndex = type { i32, i32, i64, ptr }

; Function Attrs: mustprogress nounwind null_pointer_is_valid sspstrong uwtable
define linkonce_odr noundef ptr @_ZNK17QArrayDataPointerI8QVariantEptEv(ptr noundef align 8 dereferenceable_or_null(24) %0) #1 comdat align 2 {
  %2 = alloca ptr, align 8
  store ptr %0, ptr %2, align 8
  %3 = load ptr, ptr %2, align 8
  ret ptr %3
}

; Function Attrs: mustprogress nounwind null_pointer_is_valid sspstrong uwtable
define linkonce_odr noundef i64 @_ZNK5QListI8QVariantE4sizeEv(ptr noundef align 8 dereferenceable_or_null(24) %0) #1 comdat align 2 {
  %2 = alloca ptr, align 8
  store ptr %0, ptr %2, align 8
  %3 = load ptr, ptr %2, align 8
  %4 = getelementptr inbounds nuw %class.QList, ptr %3, i32 0, i32 0
  %5 = call noundef ptr @_ZNK17QArrayDataPointerI8QVariantEptEv(ptr noundef align 8 dereferenceable_or_null(24) %4) #19
  %6 = getelementptr inbounds nuw %struct.QArrayDataPointer.0, ptr %5, i32 0, i32 2
  %7 = load i64, ptr %6, align 8
  ret i64 %7
}

; Function Attrs: mustprogress nounwind null_pointer_is_valid sspstrong uwtable
define linkonce_odr noundef i64 @_ZNK5QListI8QVariantE5countEv(ptr noundef align 8 dereferenceable_or_null(24) %0) #1 comdat align 2 {
  %2 = alloca ptr, align 8
  store ptr %0, ptr %2, align 8
  %3 = load ptr, ptr %2, align 8
  %4 = call noundef i64 @_ZNK5QListI8QVariantE4sizeEv(ptr noundef align 8 dereferenceable_or_null(24) %3) #19
  ret i64 %4
}

; Function Attrs: mustprogress nounwind null_pointer_is_valid sspstrong uwtable
define linkonce_odr noundef i32 @_ZNK19ModelHelperTreeItemI19DissectorTablesItemE10childCountEv(ptr noundef align 8 dereferenceable_or_null(40) %0) #1 comdat align 2 {
  %2 = alloca ptr, align 8
  store ptr %0, ptr %2, align 8
  %3 = load ptr, ptr %2, align 8
  %4 = getelementptr inbounds nuw %class.ModelHelperTreeItem, ptr %3, i32 0, i32 2
  %5 = call noundef i64 @_ZNK5QListI8QVariantE5countEv(ptr noundef align 8 dereferenceable_or_null(24) %4) #19
  %6 = trunc i64 %5 to i32
  ret i32 %6
}

; Function Attrs: inlinehint mustprogress nounwind null_pointer_is_valid sspstrong uwtable
define linkonce_odr noundef ptr @_ZNK11QModelIndex15internalPointerEv(ptr noundef align 8 dereferenceable_or_null(24) %0) #2 comdat align 2 {
  %2 = alloca ptr, align 8
  store ptr %0, ptr %2, align 8
  %3 = load ptr, ptr %2, align 8
  %4 = getelementptr inbounds nuw %class.QModelIndex, ptr %3, i32 0, i32 2
  %5 = load i64, ptr %4, align 8
  %6 = inttoptr i64 %5 to ptr
  ret ptr %6
}

; Function Attrs: inlinehint mustprogress nounwind null_pointer_is_valid sspstrong uwtable
define linkonce_odr noundef zeroext i1 @_ZNK11QModelIndex7isValidEv(ptr noundef align 8 dereferenceable_or_null(24) %0) #2 comdat align 2 {
  %2 = alloca ptr, align 8
  store ptr %0, ptr %2, align 8
  %3 = load ptr, ptr %2, align 8
  %4 = getelementptr inbounds nuw %class.QModelIndex, ptr %3, i32 0, i32 0
  %5 = load i32, ptr %4, align 8
  %6 = icmp sge i32 %5, 0
  br i1 %6, label %7, label %15

7:                                                ; preds = %1
  %8 = getelementptr inbounds nuw %class.QModelIndex, ptr %3, i32 0, i32 1
  %9 = load i32, ptr %8, align 4
  %10 = icmp sge i32 %9, 0
  br i1 %10, label %11, label %15

11:                                               ; preds = %7
  %12 = getelementptr inbounds nuw %class.QModelIndex, ptr %3, i32 0, i32 3
  %13 = load ptr, ptr %12, align 8
  %14 = icmp ne ptr %13, null
  br label %15

15:                                               ; preds = %11, %7, %1
  %16 = phi i1 [ false, %7 ], [ false, %1 ], [ %14, %11 ]
  ret i1 %16
}

; Function Attrs: inlinehint mustprogress nounwind null_pointer_is_valid sspstrong uwtable
define linkonce_odr noundef i32 @_ZNK11QModelIndex6columnEv(ptr noundef align 8 dereferenceable_or_null(24) %0) #2 comdat align 2 {
  %2 = alloca ptr, align 8
  store ptr %0, ptr %2, align 8
  %3 = load ptr, ptr %2, align 8
  %4 = getelementptr inbounds nuw %class.QModelIndex, ptr %3, i32 0, i32 1
  %5 = load i32, ptr %4, align 4
  ret i32 %5
}

; Function Attrs: mustprogress null_pointer_is_valid sspstrong uwtable
define noundef i32 @_ZNK20DissectorTablesModel8rowCountERK11QModelIndex(ptr noundef align 8 dereferenceable_or_null(24) %0, ptr noundef align 8 dereferenceable(24) %1) unnamed_addr #0 align 2 {
  %3 = alloca i32, align 4
  %4 = alloca ptr, align 8
  %5 = alloca ptr, align 8
  %6 = alloca ptr, align 8
  %7 = alloca i32, align 4
  store ptr %0, ptr %4, align 8
  store ptr %1, ptr %5, align 8
  %8 = load ptr, ptr %4, align 8
  call void @llvm.lifetime.start.p0(i64 8, ptr %6) #19
  %9 = load ptr, ptr %5, align 8
  %10 = call noundef i32 @_ZNK11QModelIndex6columnEv(ptr noundef align 8 dereferenceable_or_null(24) %9) #19
  %11 = icmp sgt i32 %10, 0
  br i1 %11, label %12, label %13

12:                                               ; preds = %2
  store i32 0, ptr %3, align 4
  store i32 1, ptr %7, align 4
  br label %29

13:                                               ; preds = %2
  %14 = load ptr, ptr %5, align 8
  %15 = call noundef zeroext i1 @_ZNK11QModelIndex7isValidEv(ptr noundef align 8 dereferenceable_or_null(24) %14) #19
  br i1 %15, label %19, label %16

16:                                               ; preds = %13
  %17 = getelementptr inbounds nuw %class.DissectorTablesModel, ptr %8, i32 0, i32 1
  %18 = load ptr, ptr %17, align 8
  store ptr %18, ptr %6, align 8
  br label %22

19:                                               ; preds = %13
  %20 = load ptr, ptr %5, align 8
  %21 = call noundef ptr @_ZNK11QModelIndex15internalPointerEv(ptr noundef align 8 dereferenceable_or_null(24) %20) #19
  store ptr %21, ptr %6, align 8
  br label %22

22:                                               ; preds = %19, %16
  %23 = load ptr, ptr %6, align 8
  %24 = icmp eq ptr %23, null
  br i1 %24, label %25, label %26

25:                                               ; preds = %22
  store i32 0, ptr %3, align 4
  store i32 1, ptr %7, align 4
  br label %29

26:                                               ; preds = %22
  %27 = load ptr, ptr %6, align 8
  %28 = call noundef i32 @_ZNK19ModelHelperTreeItemI19DissectorTablesItemE10childCountEv(ptr noundef align 8 dereferenceable_or_null(40) %27)
  store i32 %28, ptr %3, align 4
  store i32 1, ptr %7, align 4
  br label %29

29:                                               ; preds = %26, %25, %12
  call void @llvm.lifetime.end.p0(i64 8, ptr %6) #19
  %30 = load i32, ptr %3, align 4
  ret i32 %30
}